; Function Attrs: nounwind uwtable
define ptr @lv_draw_buf_align(ptr noundef %0, i32 noundef %1) local_unnamed_addr #0 {
  %3 = load ptr, ptr getelementptr inbounds nuw (i8, ptr @lv_global, i64 368), align 8, !tbaa !9
  %.not.i = icmp eq ptr %3, null
  br i1 %.not.i, label %lv_draw_buf_align_ex.exit, label %4

4:                                                ; preds = %2
  %5 = tail call ptr %3(ptr noundef %0, i32 noundef %1) #9
  br label %lv_draw_buf_align_ex.exit

lv_draw_buf_align_ex.exit:                        ; preds = %2, %4
  %.0.i = phi ptr [ %5, %4 ], [ null, %2 ]
  ret ptr %.0.i
}